target datalayout = "e-m:e-p270:32:32-p271:32:32-p272:64:64-i64:64-i128:128-f80:128-n8:16:32:64-S128"
target triple = "x86_64-pc-linux-gnu"

%struct.PaUtilHostApiRepresentation = type { %struct.PaUtilPrivatePaFrontHostApiInfo, %struct.PaHostApiInfo, ptr, ptr, ptr, ptr }
%struct.PaUtilPrivatePaFrontHostApiInfo = type { i64 }
%struct.PaHostApiInfo = type { i32, i32, ptr, i32, i32, i32 }

@initializationCount_ = internal global i32 0, align 4
@hostApisCount_ = internal global i32 0, align 4
@hostApis_ = internal global ptr null, align 8
@defaultHostApiIndex_ = internal global i32 0, align 4

; Function Attrs: nounwind uwtable
define i32 @Pa_GetDefaultHostApi() #0 {
  %1 = alloca i32, align 4
  %2 = load i32, ptr @initializationCount_, align 4
  %3 = icmp ne i32 %2, 0
  br i1 %3, label %5, label %4

4:                                                ; preds = %0
  store i32 -10000, ptr %1, align 4
  br label %15

5:                                                ; preds = %0
  %6 = load i32, ptr @defaultHostApiIndex_, align 4
  store i32 %6, ptr %1, align 4
  %7 = load i32, ptr %1, align 4
  %8 = icmp slt i32 %7, 0
  br i1 %8, label %13, label %9

9:                                                ; preds = %5
  %10 = load i32, ptr %1, align 4
  %11 = load i32, ptr @hostApisCount_, align 4
  %12 = icmp sge i32 %10, %11
  br i1 %12, label %13, label %14

13:                                               ; preds = %9, %5
  store i32 -9986, ptr %1, align 4
  br label %14

14:                                               ; preds = %13, %9
  br label %15

15:                                               ; preds = %14, %4
  %16 = load i32, ptr %1, align 4
  ret i32 %16
}

; Function Attrs: nounwind uwtable
define i32 @Pa_GetDefaultInputDevice() #0 {
  %1 = alloca i32, align 4
  %2 = alloca i32, align 4
  %3 = call i32 @Pa_GetDefaultHostApi()
  store i32 %3, ptr %1, align 4
  %4 = load i32, ptr %1, align 4
  %5 = icmp slt i32 %4, 0
  br i1 %5, label %6, label %7

6:                                                ; preds = %0
  store i32 -1, ptr %2, align 4
  br label %16

7:                                                ; preds = %0
  %8 = load ptr, ptr @hostApis_, align 8
  %9 = load i32, ptr %1, align 4
  %10 = sext i32 %9 to i64
  %11 = getelementptr inbounds ptr, ptr %8, i64 %10
  %12 = load ptr, ptr %11, align 8
  %13 = getelementptr inbounds nuw %struct.PaUtilHostApiRepresentation, ptr %12, i32 0, i32 1
  %14 = getelementptr inbounds nuw %struct.PaHostApiInfo, ptr %13, i32 0, i32 4
  %15 = load i32, ptr %14, align 4
  store i32 %15, ptr %2, align 4
  br label %16

16:                                               ; preds = %7, %6
  %17 = load i32, ptr %2, align 4
  ret i32 %17
}